#include <math.h>
#include <stdio.h>
#include <stdlib.h>
#include <string.h>

int main(){
    int n,i,j;
	char sz[256];
	scanf("%d\n",&n);
	for(i=0;i<n;i++){
		scanf("%s",sz);
		for(j=0;sz[j];j++){
			if(sz[j]=='A'){
				sz[j]=sz[j]+19;
			}
			else if(sz[j]=='T'){
				sz[j]=sz[j]-19;
			}
			else if(sz[j]=='G'){
				sz[j]=sz[j]-4;
			}
			else if(sz[j]=='C'){
				sz[j]=sz[j]+4;
			}
		}
		printf("%s\n",sz);
	}
	return 0;
}
			
			

